target datalayout = "e-m:e-p270:32:32-p271:32:32-p272:64:64-i64:64-i128:128-f80:128-n8:16:32:64-S128"
target triple = "x86_64-pc-linux-gnu"

%"class.pxrInternal_v0_24__pxrReserved__::HdDataSourceLocator" = type { %"class.pxrInternal_v0_24__pxrReserved__::TfSmallVector.0" }
%"class.pxrInternal_v0_24__pxrReserved__::TfSmallVector.0" = type { %"union.pxrInternal_v0_24__pxrReserved__::TfSmallVectorBase::_DataUnion.1", i32, i32 }
%"union.pxrInternal_v0_24__pxrReserved__::TfSmallVectorBase::_DataUnion.1" = type { ptr, [40 x i8] }

; Function Attrs: mustprogress uwtable
define internal noundef zeroext i1 @_ZN32pxrInternal_v0_24__pxrReserved__L12_FindLocatorERKNS_19HdDataSourceLocatorERKPS1_PS3_b(ptr noundef nonnull align 8 dereferenceable(56) %0, ptr noundef nonnull align 8 dereferenceable(8) %1, ptr noundef %2, i1 noundef zeroext %3) #0 {
  %5 = alloca i1, align 1
  %6 = alloca ptr, align 8
  %7 = alloca ptr, align 8
  %8 = alloca ptr, align 8
  %9 = alloca i8, align 1
  %10 = alloca i8, align 1
  store ptr %0, ptr %6, align 8
  store ptr %1, ptr %7, align 8
  store ptr %2, ptr %8, align 8
  %11 = zext i1 %3 to i8
  store i8 %11, ptr %9, align 1
  %12 = load ptr, ptr %8, align 8
  %13 = load ptr, ptr %12, align 8
  %14 = load ptr, ptr %7, align 8
  %15 = load ptr, ptr %14, align 8
  %16 = icmp eq ptr %13, %15
  br i1 %16, label %17, label %18

17:                                               ; preds = %4
  store i1 false, ptr %5, align 1
  br label %50

18:                                               ; preds = %4
  store i8 0, ptr %10, align 1
  br label %19

19:                                               ; preds = %43, %18
  %20 = load ptr, ptr %8, align 8
  %21 = load ptr, ptr %20, align 8
  %22 = load ptr, ptr %7, align 8
  %23 = load ptr, ptr %22, align 8
  %24 = icmp ne ptr %21, %23
  br i1 %24, label %25, label %47

25:                                               ; preds = %19
  %26 = load ptr, ptr %8, align 8
  %27 = load ptr, ptr %26, align 8
  %28 = load ptr, ptr %6, align 8
  %29 = call noundef zeroext i1 @_ZNK32pxrInternal_v0_24__pxrReserved__19HdDataSourceLocator10IntersectsERKS0_(ptr noundef nonnull align 8 dereferenceable(56) %27, ptr noundef nonnull align 8 dereferenceable(56) %28)
  br i1 %29, label %30, label %35

30:                                               ; preds = %25
  store i8 1, ptr %10, align 1
  %31 = load i8, ptr %9, align 1
  %32 = trunc i8 %31 to i1
  br i1 %32, label %34, label %33

33:                                               ; preds = %30
  br label %47

34:                                               ; preds = %30
  br label %42

35:                                               ; preds = %25
  %36 = load ptr, ptr %6, align 8
  %37 = load ptr, ptr %8, align 8
  %38 = load ptr, ptr %37, align 8
  %39 = call noundef zeroext i1 @_ZNK32pxrInternal_v0_24__pxrReserved__19HdDataSourceLocatorltERKS0_(ptr noundef nonnull align 8 dereferenceable(56) %36, ptr noundef nonnull align 8 dereferenceable(56) %38)
  br i1 %39, label %40, label %41

40:                                               ; preds = %35
  br label %47

41:                                               ; preds = %35
  br label %42

42:                                               ; preds = %41, %34
  br label %43

43:                                               ; preds = %42
  %44 = load ptr, ptr %8, align 8
  %45 = load ptr, ptr %44, align 8
  %46 = getelementptr inbounds %"class.pxrInternal_v0_24__pxrReserved__::HdDataSourceLocator", ptr %45, i32 1
  store ptr %46, ptr %44, align 8
  br label %19, !llvm.loop !8

47:                                               ; preds = %40, %33, %19
  %48 = load i8, ptr %10, align 1
  %49 = trunc i8 %48 to i1
  store i1 %49, ptr %5, align 1
  br label %50

50:                                               ; preds = %47, %17
  %51 = load i1, ptr %5, align 1
  ret i1 %51
}