; Function Attrs: mustprogress uwtable
define internal fastcc noundef zeroext i1 @_ZN32pxrInternal_v0_24__pxrReserved__L12_FindLocatorERKNS_19HdDataSourceLocatorERKPS1_PS3_b(ptr noundef nonnull align 8 dereferenceable(56) %0, ptr readnone %.0.val, ptr noundef nonnull captures(none) %1, i1 noundef zeroext %2) unnamed_addr #0 {
  %4 = load ptr, ptr %1, align 8
  %5 = icmp eq ptr %4, %.0.val
  br i1 %5, label %.loopexit, label %.lr.ph

.lr.ph:                                           ; preds = %3
  br i1 %2, label %.lr.ph.split.us, label %.lr.ph.split

.lr.ph.split.us:                                  ; preds = %.lr.ph, %11
  %6 = phi ptr [ %13, %11 ], [ %4, %.lr.ph ]
  %.02.us = phi i1 [ %.2.us, %11 ], [ false, %.lr.ph ]
  %7 = tail call noundef zeroext i1 @_ZNK32pxrInternal_v0_24__pxrReserved__19HdDataSourceLocator10IntersectsERKS0_(ptr noundef nonnull align 8 dereferenceable(56) %6, ptr noundef nonnull align 8 dereferenceable(56) %0)
  br i1 %7, label %11, label %8

8:                                                ; preds = %.lr.ph.split.us
  %9 = load ptr, ptr %1, align 8
  %10 = tail call noundef zeroext i1 @_ZNK32pxrInternal_v0_24__pxrReserved__19HdDataSourceLocatorltERKS0_(ptr noundef nonnull align 8 dereferenceable(56) %0, ptr noundef nonnull align 8 dereferenceable(56) %9)
  br i1 %10, label %.loopexit, label %11

11:                                               ; preds = %.lr.ph.split.us, %8
  %.2.us = phi i1 [ %.02.us, %8 ], [ true, %.lr.ph.split.us ]
  %12 = load ptr, ptr %1, align 8
  %13 = getelementptr inbounds nuw i8, ptr %12, i64 56
  store ptr %13, ptr %1, align 8
  %.not.us = icmp eq ptr %13, %.0.val
  br i1 %.not.us, label %.loopexit, label %.lr.ph.split.us, !llvm.loop !10

.lr.ph.split:                                     ; preds = %.lr.ph, %19
  %14 = phi ptr [ %21, %19 ], [ %4, %.lr.ph ]
  %15 = tail call noundef zeroext i1 @_ZNK32pxrInternal_v0_24__pxrReserved__19HdDataSourceLocator10IntersectsERKS0_(ptr noundef nonnull align 8 dereferenceable(56) %14, ptr noundef nonnull align 8 dereferenceable(56) %0)
  br i1 %15, label %.loopexit, label %16

16:                                               ; preds = %.lr.ph.split
  %17 = load ptr, ptr %1, align 8
  %18 = tail call noundef zeroext i1 @_ZNK32pxrInternal_v0_24__pxrReserved__19HdDataSourceLocatorltERKS0_(ptr noundef nonnull align 8 dereferenceable(56) %0, ptr noundef nonnull align 8 dereferenceable(56) %17)
  br i1 %18, label %.loopexit, label %19

19:                                               ; preds = %16
  %20 = load ptr, ptr %1, align 8
  %21 = getelementptr inbounds nuw i8, ptr %20, i64 56
  store ptr %21, ptr %1, align 8
  %.not = icmp eq ptr %21, %.0.val
  br i1 %.not, label %.loopexit, label %.lr.ph.split, !llvm.loop !10

.loopexit:                                        ; preds = %16, %.lr.ph.split, %19, %8, %11, %3
  %.011 = phi i1 [ false, %3 ], [ %.02.us, %8 ], [ %.2.us, %11 ], [ %15, %19 ], [ %15, %.lr.ph.split ], [ %15, %16 ]
  ret i1 %.011
}